; ModuleID = '12/714.c'
source_filename = "12/714.c"
target datalayout = "e-m:e-p270:32:32-p271:32:32-p272:64:64-i64:64-f80:128-n8:16:32:64-S128"
target triple = "x86_64-pc-linux-gnu"

@.str = private unnamed_addr constant [3 x i8] c"%d\00", align 1
@.str.1 = private unnamed_addr constant [4 x i8] c"%d\0A\00", align 1

; Function Attrs: noinline nounwind uwtable
define dso_local i32 @main() #0 {
  %1 = alloca i32, align 4
  %2 = alloca i32, align 4
  %3 = alloca i32, align 4
  %4 = alloca i32, align 4
  %5 = alloca [15 x i32], align 16
  %6 = alloca i32, align 4
  store i32 0, i32* %1, align 4
  br label %7

7:                                                ; preds = %0, %75
  store i32 -1, i32* %4, align 4
  store i32 0, i32* %6, align 4
  %8 = call i32 (i8*, ...) @__isoc99_scanf(i8* getelementptr inbounds ([3 x i8], [3 x i8]* @.str, i64 0, i64 0), i32* %2)
  %9 = load i32, i32* %2, align 4
  %10 = icmp eq i32 %9, -1
  br i1 %10, label %11, label %12

11:                                               ; preds = %7
  br label %78

12:                                               ; preds = %7
  %13 = load i32, i32* %2, align 4
  %14 = load i32, i32* %4, align 4
  %15 = add nsw i32 %14, 1
  store i32 %15, i32* %4, align 4
  %16 = sext i32 %15 to i64
  %17 = getelementptr inbounds [15 x i32], [15 x i32]* %5, i64 0, i64 %16
  store i32 %13, i32* %17, align 4
  br label %18

18:                                               ; preds = %12, %23
  %19 = call i32 (i8*, ...) @__isoc99_scanf(i8* getelementptr inbounds ([3 x i8], [3 x i8]* @.str, i64 0, i64 0), i32* %2)
  %20 = load i32, i32* %2, align 4
  %21 = icmp eq i32 %20, 0
  br i1 %21, label %22, label %23

22:                                               ; preds = %18
  br label %29

23:                                               ; preds = %18
  %24 = load i32, i32* %2, align 4
  %25 = load i32, i32* %4, align 4
  %26 = add nsw i32 %25, 1
  store i32 %26, i32* %4, align 4
  %27 = sext i32 %26 to i64
  %28 = getelementptr inbounds [15 x i32], [15 x i32]* %5, i64 0, i64 %27
  store i32 %24, i32* %28, align 4
  br label %18

29:                                               ; preds = %22
  store i32 0, i32* %2, align 4
  br label %30

30:                                               ; preds = %72, %29
  %31 = load i32, i32* %2, align 4
  %32 = load i32, i32* %4, align 4
  %33 = sub nsw i32 %32, 1
  %34 = icmp sle i32 %31, %33
  br i1 %34, label %35, label %75

35:                                               ; preds = %30
  %36 = load i32, i32* %2, align 4
  %37 = add nsw i32 %36, 1
  store i32 %37, i32* %3, align 4
  br label %38

38:                                               ; preds = %68, %35
  %39 = load i32, i32* %3, align 4
  %40 = load i32, i32* %4, align 4
  %41 = icmp sle i32 %39, %40
  br i1 %41, label %42, label %71

42:                                               ; preds = %38
  %43 = load i32, i32* %3, align 4
  %44 = sext i32 %43 to i64
  %45 = getelementptr inbounds [15 x i32], [15 x i32]* %5, i64 0, i64 %44
  %46 = load i32, i32* %45, align 4
  %47 = load i32, i32* %2, align 4
  %48 = sext i32 %47 to i64
  %49 = getelementptr inbounds [15 x i32], [15 x i32]* %5, i64 0, i64 %48
  %50 = load i32, i32* %49, align 4
  %51 = mul nsw i32 2, %50
  %52 = icmp eq i32 %46, %51
  br i1 %52, label %64, label %53

53:                                               ; preds = %42
  %54 = load i32, i32* %2, align 4
  %55 = sext i32 %54 to i64
  %56 = getelementptr inbounds [15 x i32], [15 x i32]* %5, i64 0, i64 %55
  %57 = load i32, i32* %56, align 4
  %58 = load i32, i32* %3, align 4
  %59 = sext i32 %58 to i64
  %60 = getelementptr inbounds [15 x i32], [15 x i32]* %5, i64 0, i64 %59
  %61 = load i32, i32* %60, align 4
  %62 = mul nsw i32 2, %61
  %63 = icmp eq i32 %57, %62
  br i1 %63, label %64, label %67

64:                                               ; preds = %53, %42
  %65 = load i32, i32* %6, align 4
  %66 = add nsw i32 %65, 1
  store i32 %66, i32* %6, align 4
  br label %67

67:                                               ; preds = %64, %53
  br label %68

68:                                               ; preds = %67
  %69 = load i32, i32* %3, align 4
  %70 = add nsw i32 %69, 1
  store i32 %70, i32* %3, align 4
  br label %38

71:                                               ; preds = %38
  br label %72

72:                                               ; preds = %71
  %73 = load i32, i32* %2, align 4
  %74 = add nsw i32 %73, 1
  store i32 %74, i32* %2, align 4
  br label %30

75:                                               ; preds = %30
  %76 = load i32, i32* %6, align 4
  %77 = call i32 (i8*, ...) @printf(i8* getelementptr inbounds ([4 x i8], [4 x i8]* @.str.1, i64 0, i64 0), i32 %76)
  br label %7

78:                                               ; preds = %11
  ret i32 0
}

declare dso_local i32 @__isoc99_scanf(i8*, ...) #1

declare dso_local i32 @printf(i8*, ...) #1


!llvm.module.flags = !{!0}
!llvm.ident = !{!1}

!0 = !{i32 1, !"wchar_size", i32 4}
!1 = !{!"clang version 10.0.0-4ubuntu1 "}
